target datalayout = "e-m:e-p270:32:32-p271:32:32-p272:64:64-i64:64-i128:128-f80:128-n8:16:32:64-S128"
target triple = "x86_64-pc-linux-gnu"

%struct.Str_Mux_t_ = type { i32, i32, i32, i32, [3 x %struct.Str_Edg_t_] }
%struct.Str_Edg_t_ = type { i32, i32, i32, i32 }

; Function Attrs: inlinehint nounwind uwtable
define internal i32 @Abc_MaxInt(i32 noundef %0, i32 noundef %1) #3 {
  %3 = alloca i32, align 4
  %4 = alloca i32, align 4
  store i32 %0, ptr %3, align 4, !tbaa !39
  store i32 %1, ptr %4, align 4, !tbaa !39
  %5 = load i32, ptr %3, align 4, !tbaa !39
  %6 = load i32, ptr %4, align 4, !tbaa !39
  %7 = icmp sgt i32 %5, %6
  br i1 %7, label %8, label %10

8:                                                ; preds = %2
  %9 = load i32, ptr %3, align 4, !tbaa !39
  br label %12

10:                                               ; preds = %2
  %11 = load i32, ptr %4, align 4, !tbaa !39
  br label %12

12:                                               ; preds = %10, %8
  %13 = phi i32 [ %9, %8 ], [ %11, %10 ]
  ret i32 %13
}

; Function Attrs: inlinehint nounwind uwtable
define internal i32 @Abc_Var2Lit(i32 noundef %0, i32 noundef %1) #3 {
  %3 = alloca i32, align 4
  %4 = alloca i32, align 4
  store i32 %0, ptr %3, align 4, !tbaa !39
  store i32 %1, ptr %4, align 4, !tbaa !39
  %5 = load i32, ptr %3, align 4, !tbaa !39
  %6 = load i32, ptr %3, align 4, !tbaa !39
  %7 = add nsw i32 %5, %6
  %8 = load i32, ptr %4, align 4, !tbaa !39
  %9 = add nsw i32 %7, %8
  ret i32 %9
}

; Function Attrs: nounwind uwtable
define i32 @Str_MuxFindPath_rec(ptr noundef %0, ptr noundef %1, ptr noundef %2) #0 {
  %4 = alloca i32, align 4
  %5 = alloca ptr, align 8
  %6 = alloca ptr, align 8
  %7 = alloca ptr, align 8
  %8 = alloca i32, align 4
  %9 = alloca i32, align 4
  %10 = alloca i32, align 4
  store ptr %0, ptr %5, align 8, !tbaa !153
  store ptr %1, ptr %6, align 8, !tbaa !109
  store ptr %2, ptr %7, align 8, !tbaa !109
  call void @llvm.lifetime.start.p0(i64 4, ptr %8) #13
  call void @llvm.lifetime.start.p0(i64 4, ptr %9) #13
  %11 = load ptr, ptr %5, align 8, !tbaa !153
  %12 = getelementptr inbounds nuw %struct.Str_Mux_t_, ptr %11, i32 0, i32 4
  %13 = getelementptr inbounds [3 x %struct.Str_Edg_t_], ptr %12, i64 0, i64 0
  %14 = getelementptr inbounds nuw %struct.Str_Edg_t_, ptr %13, i32 0, i32 2
  %15 = load i32, ptr %14, align 4, !tbaa !157
  %16 = load ptr, ptr %5, align 8, !tbaa !153
  %17 = getelementptr inbounds nuw %struct.Str_Mux_t_, ptr %16, i32 0, i32 4
  %18 = getelementptr inbounds [3 x %struct.Str_Edg_t_], ptr %17, i64 0, i64 1
  %19 = getelementptr inbounds nuw %struct.Str_Edg_t_, ptr %18, i32 0, i32 2
  %20 = load i32, ptr %19, align 4, !tbaa !157
  %21 = load ptr, ptr %5, align 8, !tbaa !153
  %22 = getelementptr inbounds nuw %struct.Str_Mux_t_, ptr %21, i32 0, i32 4
  %23 = getelementptr inbounds [3 x %struct.Str_Edg_t_], ptr %22, i64 0, i64 2
  %24 = getelementptr inbounds nuw %struct.Str_Edg_t_, ptr %23, i32 0, i32 2
  %25 = load i32, ptr %24, align 4, !tbaa !157
  %26 = call i32 @Abc_MaxInt(i32 noundef %20, i32 noundef %25)
  %27 = call i32 @Abc_MaxInt(i32 noundef %15, i32 noundef %26)
  store i32 %27, ptr %9, align 4, !tbaa !39
  store i32 0, ptr %8, align 4, !tbaa !39
  br label %28

28:                                               ; preds = %48, %3
  %29 = load i32, ptr %8, align 4, !tbaa !39
  %30 = icmp slt i32 %29, 2
  br i1 %30, label %31, label %51

31:                                               ; preds = %28
  %32 = load ptr, ptr %5, align 8, !tbaa !153
  %33 = getelementptr inbounds nuw %struct.Str_Mux_t_, ptr %32, i32 0, i32 4
  %34 = load i32, ptr %8, align 4, !tbaa !39
  %35 = sext i32 %34 to i64
  %36 = getelementptr inbounds [3 x %struct.Str_Edg_t_], ptr %33, i64 0, i64 %35
  %37 = getelementptr inbounds nuw %struct.Str_Edg_t_, ptr %36, i32 0, i32 2
  %38 = load i32, ptr %37, align 4, !tbaa !157
  %39 = load i32, ptr %9, align 4, !tbaa !39
  %40 = icmp eq i32 %38, %39
  br i1 %40, label %41, label %47

41:                                               ; preds = %31
  %42 = load ptr, ptr %5, align 8, !tbaa !153
  %43 = load i32, ptr %8, align 4, !tbaa !39
  %44 = load ptr, ptr %6, align 8, !tbaa !109
  %45 = load ptr, ptr %7, align 8, !tbaa !109
  %46 = call i32 @Str_MuxFindPathEdge_rec(ptr noundef %42, i32 noundef %43, ptr noundef %44, ptr noundef %45)
  store i32 %46, ptr %4, align 4
  store i32 1, ptr %10, align 4
  br label %61

47:                                               ; preds = %31
  br label %48

48:                                               ; preds = %47
  %49 = load i32, ptr %8, align 4, !tbaa !39
  %50 = add nsw i32 %49, 1
  store i32 %50, ptr %8, align 4, !tbaa !39
  br label %28, !llvm.loop !171

51:                                               ; preds = %28
  %52 = load ptr, ptr %5, align 8, !tbaa !153
  %53 = getelementptr inbounds nuw %struct.Str_Mux_t_, ptr %52, i32 0, i32 4
  %54 = getelementptr inbounds [3 x %struct.Str_Edg_t_], ptr %53, i64 0, i64 2
  %55 = getelementptr inbounds nuw %struct.Str_Edg_t_, ptr %54, i32 0, i32 2
  %56 = load i32, ptr %55, align 4, !tbaa !157
  %57 = load i32, ptr %9, align 4, !tbaa !39
  %58 = icmp eq i32 %56, %57
  br i1 %58, label %59, label %60

59:                                               ; preds = %51
  store i32 0, ptr %4, align 4
  store i32 1, ptr %10, align 4
  br label %61

60:                                               ; preds = %51
  store i32 -1, ptr %4, align 4
  store i32 1, ptr %10, align 4
  br label %61

61:                                               ; preds = %60, %59, %41
  call void @llvm.lifetime.end.p0(i64 4, ptr %9) #13
  call void @llvm.lifetime.end.p0(i64 4, ptr %8) #13
  %62 = load i32, ptr %4, align 4
  ret i32 %62
}

; Function Attrs: inlinehint nounwind uwtable
define internal ptr @Str_MuxFanin(ptr noundef %0, i32 noundef %1) #3 {
  %3 = alloca ptr, align 8
  %4 = alloca i32, align 4
  store ptr %0, ptr %3, align 8, !tbaa !153
  store i32 %1, ptr %4, align 4, !tbaa !39
  %5 = load ptr, ptr %3, align 8, !tbaa !153
  %6 = load ptr, ptr %3, align 8, !tbaa !153
  %7 = getelementptr inbounds nuw %struct.Str_Mux_t_, ptr %6, i32 0, i32 0
  %8 = load i32, ptr %7, align 4, !tbaa !159
  %9 = sext i32 %8 to i64
  %10 = sub i64 0, %9
  %11 = getelementptr inbounds %struct.Str_Mux_t_, ptr %5, i64 %10
  %12 = load ptr, ptr %3, align 8, !tbaa !153
  %13 = getelementptr inbounds nuw %struct.Str_Mux_t_, ptr %12, i32 0, i32 4
  %14 = load i32, ptr %4, align 4, !tbaa !39
  %15 = sext i32 %14 to i64
  %16 = getelementptr inbounds [3 x %struct.Str_Edg_t_], ptr %13, i64 0, i64 %15
  %17 = getelementptr inbounds nuw %struct.Str_Edg_t_, ptr %16, i32 0, i32 0
  %18 = load i32, ptr %17, align 4, !tbaa !155
  %19 = sext i32 %18 to i64
  %20 = getelementptr inbounds %struct.Str_Mux_t_, ptr %11, i64 %19
  ret ptr %20
}

; Function Attrs: nounwind uwtable
define i32 @Str_MuxFindPathEdge_rec(ptr noundef %0, i32 noundef %1, ptr noundef %2, ptr noundef %3) #0 {
  %5 = alloca i32, align 4
  %6 = alloca ptr, align 8
  %7 = alloca i32, align 4
  %8 = alloca ptr, align 8
  %9 = alloca ptr, align 8
  store ptr %0, ptr %6, align 8, !tbaa !153
  store i32 %1, ptr %7, align 4, !tbaa !39
  store ptr %2, ptr %8, align 8, !tbaa !109
  store ptr %3, ptr %9, align 8, !tbaa !109
  %10 = load ptr, ptr %6, align 8, !tbaa !153
  %11 = getelementptr inbounds nuw %struct.Str_Mux_t_, ptr %10, i32 0, i32 4
  %12 = load i32, ptr %7, align 4, !tbaa !39
  %13 = sext i32 %12 to i64
  %14 = getelementptr inbounds [3 x %struct.Str_Edg_t_], ptr %11, i64 0, i64 %13
  %15 = getelementptr inbounds nuw %struct.Str_Edg_t_, ptr %14, i32 0, i32 0
  %16 = load i32, ptr %15, align 4, !tbaa !155
  %17 = icmp sgt i32 %16, 0
  br i1 %17, label %18, label %27

18:                                               ; preds = %4
  %19 = load ptr, ptr %6, align 8, !tbaa !153
  %20 = load i32, ptr %7, align 4, !tbaa !39
  %21 = call ptr @Str_MuxFanin(ptr noundef %19, i32 noundef %20)
  %22 = load ptr, ptr %8, align 8, !tbaa !109
  %23 = load ptr, ptr %9, align 8, !tbaa !109
  %24 = call i32 @Str_MuxFindPath_rec(ptr noundef %21, ptr noundef %22, ptr noundef %23)
  %25 = icmp ne i32 %24, 0
  br i1 %25, label %27, label %26

26:                                               ; preds = %18
  store i32 0, ptr %5, align 4
  br label %39

27:                                               ; preds = %18, %4
  %28 = load ptr, ptr %6, align 8, !tbaa !153
  %29 = getelementptr inbounds nuw %struct.Str_Mux_t_, ptr %28, i32 0, i32 0
  %30 = load i32, ptr %29, align 4, !tbaa !159
  %31 = load i32, ptr %7, align 4, !tbaa !39
  %32 = call i32 @Abc_Var2Lit(i32 noundef %30, i32 noundef %31)
  %33 = load ptr, ptr %8, align 8, !tbaa !109
  %34 = load ptr, ptr %9, align 8, !tbaa !109
  %35 = load i32, ptr %34, align 4, !tbaa !39
  %36 = add nsw i32 %35, 1
  store i32 %36, ptr %34, align 4, !tbaa !39
  %37 = sext i32 %35 to i64
  %38 = getelementptr inbounds i32, ptr %33, i64 %37
  store i32 %32, ptr %38, align 4, !tbaa !39
  store i32 1, ptr %5, align 4
  br label %39

39:                                               ; preds = %27, %26
  %40 = load i32, ptr %5, align 4
  ret i32 %40
}