; Function Attrs: nofree nosync nounwind memory(argmem: readwrite) uwtable
define range(i32 0, 2) i32 @Str_MuxFindPathEdge_rec(ptr noundef readonly captures(none) %0, i32 noundef %1, ptr noundef writeonly captures(none) %2, ptr noundef captures(none) %3) local_unnamed_addr #11 {
  %5 = getelementptr inbounds nuw i8, ptr %0, i64 16
  %6 = sext i32 %1 to i64
  %7 = getelementptr inbounds [3 x %struct.Str_Edg_t_], ptr %5, i64 0, i64 %6
  %8 = load i32, ptr %7, align 4, !tbaa !136
  %9 = icmp sgt i32 %8, 0
  %.pre19 = load i32, ptr %0, align 4, !tbaa !139
  br i1 %9, label %10, label %Str_MuxFindPath_rec.exit.thread12

10:                                               ; preds = %4
  %11 = sext i32 %.pre19 to i64
  %12 = sub nsw i64 0, %11
  %13 = getelementptr inbounds %struct.Str_Mux_t_, ptr %0, i64 %12
  %14 = zext nneg i32 %8 to i64
  %15 = getelementptr inbounds nuw %struct.Str_Mux_t_, ptr %13, i64 %14
  %16 = getelementptr inbounds nuw i8, ptr %15, i64 24
  %17 = load i32, ptr %16, align 4, !tbaa !138
  %18 = getelementptr inbounds nuw i8, ptr %15, i64 40
  %19 = load i32, ptr %18, align 4, !tbaa !138
  %20 = getelementptr inbounds nuw i8, ptr %15, i64 56
  %21 = load i32, ptr %20, align 4, !tbaa !138
  %22 = tail call noundef i32 @llvm.smax.i32(i32 %19, i32 %21)
  %23 = tail call noundef i32 @llvm.smax.i32(i32 %17, i32 %22)
  %24 = getelementptr i8, ptr %15, i64 24
  br label %25

25:                                               ; preds = %10, %31
  %26 = phi i1 [ true, %10 ], [ false, %31 ]
  %indvars.iv = phi i64 [ 0, %10 ], [ 1, %31 ]
  %27 = shl nuw nsw i64 %indvars.iv, 4
  %28 = getelementptr i8, ptr %24, i64 %27
  %29 = load i32, ptr %28, align 4, !tbaa !138
  %30 = icmp eq i32 %29, %23
  br i1 %30, label %Str_MuxFindPath_rec.exit, label %31

31:                                               ; preds = %25
  br i1 %26, label %25, label %32, !llvm.loop !152

32:                                               ; preds = %31
  %33 = icmp eq i32 %21, %23
  br i1 %33, label %Str_MuxFindPath_rec.exit.thread, label %Str_MuxFindPath_rec.exit.thread12

Str_MuxFindPath_rec.exit:                         ; preds = %25
  %34 = trunc nuw nsw i64 %indvars.iv to i32
  %35 = tail call i32 @Str_MuxFindPathEdge_rec(ptr noundef nonnull %15, i32 noundef %34, ptr noundef %2, ptr noundef %3)
  %.not = icmp eq i32 %35, 0
  br i1 %.not, label %Str_MuxFindPath_rec.exit.thread, label %Str_MuxFindPath_rec.exit.Str_MuxFindPath_rec.exit.thread12_crit_edge

Str_MuxFindPath_rec.exit.Str_MuxFindPath_rec.exit.thread12_crit_edge: ; preds = %Str_MuxFindPath_rec.exit
  %.pre = load i32, ptr %0, align 4, !tbaa !139
  br label %Str_MuxFindPath_rec.exit.thread12

Str_MuxFindPath_rec.exit.thread12:                ; preds = %Str_MuxFindPath_rec.exit.Str_MuxFindPath_rec.exit.thread12_crit_edge, %32, %4
  %36 = phi i32 [ %.pre, %Str_MuxFindPath_rec.exit.Str_MuxFindPath_rec.exit.thread12_crit_edge ], [ %.pre19, %32 ], [ %.pre19, %4 ]
  %37 = shl nsw i32 %36, 1
  %38 = add nsw i32 %37, %1
  %39 = load i32, ptr %3, align 4, !tbaa !38
  %40 = add nsw i32 %39, 1
  store i32 %40, ptr %3, align 4, !tbaa !38
  %41 = sext i32 %39 to i64
  %42 = getelementptr inbounds i32, ptr %2, i64 %41
  store i32 %38, ptr %42, align 4, !tbaa !38
  br label %Str_MuxFindPath_rec.exit.thread

Str_MuxFindPath_rec.exit.thread:                  ; preds = %32, %Str_MuxFindPath_rec.exit, %Str_MuxFindPath_rec.exit.thread12
  %.0 = phi i32 [ 1, %Str_MuxFindPath_rec.exit.thread12 ], [ 0, %Str_MuxFindPath_rec.exit ], [ 0, %32 ]
  ret i32 %.0
}